target datalayout = "e-m:e-p270:32:32-p271:32:32-p272:64:64-i64:64-i128:128-f80:128-n8:16:32:64-S128"
target triple = "x86_64-pc-linux-gnu"

%"struct.seq_util::rex::info" = type { i32, i8, i32, i32 }

; Function Attrs: mustprogress nounwind uwtable
define linkonce_odr hidden void @_ZN8seq_util3rex4infoC2Eb5lboolj(ptr noundef nonnull align 4 dereferenceable(16) %0, i1 noundef zeroext %1, i32 noundef %2, i32 noundef %3) unnamed_addr #6 comdat align 2 {
  %5 = alloca ptr, align 8
  %6 = alloca i8, align 1
  %7 = alloca i32, align 4
  %8 = alloca i32, align 4
  store ptr %0, ptr %5, align 8, !tbaa !301
  %9 = zext i1 %1 to i8
  store i8 %9, ptr %6, align 1, !tbaa !77
  store i32 %2, ptr %7, align 4, !tbaa !285
  store i32 %3, ptr %8, align 4, !tbaa !55
  %10 = load ptr, ptr %5, align 8
  %11 = getelementptr inbounds nuw %"struct.seq_util::rex::info", ptr %10, i32 0, i32 0
  store i32 1, ptr %11, align 4, !tbaa !302
  %12 = getelementptr inbounds nuw %"struct.seq_util::rex::info", ptr %10, i32 0, i32 1
  %13 = load i8, ptr %6, align 1, !tbaa !77, !range !78, !noundef !79
  %14 = trunc i8 %13 to i1
  %15 = zext i1 %14 to i8
  store i8 %15, ptr %12, align 4, !tbaa !303
  %16 = getelementptr inbounds nuw %"struct.seq_util::rex::info", ptr %10, i32 0, i32 2
  %17 = load i32, ptr %7, align 4, !tbaa !285
  store i32 %17, ptr %16, align 4, !tbaa !304
  %18 = getelementptr inbounds nuw %"struct.seq_util::rex::info", ptr %10, i32 0, i32 3
  %19 = load i32, ptr %8, align 4, !tbaa !55
  store i32 %19, ptr %18, align 4, !tbaa !283
  ret void
}

; Function Attrs: mustprogress nounwind uwtable
define linkonce_odr hidden noundef zeroext i1 @_ZNK8seq_util3rex4info8is_knownEv(ptr noundef nonnull align 4 dereferenceable(16) %0) #6 comdat align 2 {
  %2 = alloca ptr, align 8
  store ptr %0, ptr %2, align 8, !tbaa !301
  %3 = load ptr, ptr %2, align 8
  %4 = getelementptr inbounds nuw %"struct.seq_util::rex::info", ptr %3, i32 0, i32 0
  %5 = load i32, ptr %4, align 4, !tbaa !302
  %6 = icmp eq i32 %5, 1
  ret i1 %6
}

; Function Attrs: mustprogress uwtable
define hidden { i64, i64 } @_ZNK8seq_util3rex4info4loopEjj(ptr noundef nonnull align 4 dereferenceable(16) %0, i32 noundef %1, i32 noundef %2) #4 align 2 {
  %4 = alloca %"struct.seq_util::rex::info", align 4
  %5 = alloca ptr, align 8
  %6 = alloca i32, align 4
  %7 = alloca i32, align 4
  %8 = alloca i32, align 4
  %9 = alloca i32, align 4
  store ptr %0, ptr %5, align 8, !tbaa !301
  store i32 %1, ptr %6, align 4, !tbaa !55
  store i32 %2, ptr %7, align 4, !tbaa !55
  %10 = load ptr, ptr %5, align 8
  %11 = call noundef zeroext i1 @_ZNK8seq_util3rex4info8is_knownEv(ptr noundef nonnull align 4 dereferenceable(16) %10)
  br i1 %11, label %12, label %47

12:                                               ; preds = %3
  call void @llvm.lifetime.start.p0(i64 4, ptr %8) #3
  %13 = getelementptr inbounds nuw %"struct.seq_util::rex::info", ptr %10, i32 0, i32 3
  %14 = load i32, ptr %13, align 4, !tbaa !283
  %15 = load i32, ptr %6, align 4, !tbaa !55
  %16 = mul i32 %14, %15
  store i32 %16, ptr %8, align 4, !tbaa !55
  %17 = load i32, ptr %8, align 4, !tbaa !55
  %18 = icmp ugt i32 %17, 0
  br i1 %18, label %19, label %29

19:                                               ; preds = %12
  %20 = load i32, ptr %8, align 4, !tbaa !55
  %21 = getelementptr inbounds nuw %"struct.seq_util::rex::info", ptr %10, i32 0, i32 3
  %22 = load i32, ptr %21, align 4, !tbaa !283
  %23 = icmp ult i32 %20, %22
  br i1 %23, label %28, label %24

24:                                               ; preds = %19
  %25 = load i32, ptr %8, align 4, !tbaa !55
  %26 = load i32, ptr %6, align 4, !tbaa !55
  %27 = icmp ult i32 %25, %26
  br i1 %27, label %28, label %29

28:                                               ; preds = %24, %19
  store i32 -1, ptr %8, align 4, !tbaa !55
  br label %29

29:                                               ; preds = %28, %24, %12
  call void @llvm.lifetime.start.p0(i64 4, ptr %9) #3
  %30 = getelementptr inbounds nuw %"struct.seq_util::rex::info", ptr %10, i32 0, i32 2
  %31 = load i32, ptr %30, align 4, !tbaa !304
  %32 = icmp eq i32 %31, 1
  br i1 %32, label %36, label %33

33:                                               ; preds = %29
  %34 = load i32, ptr %6, align 4, !tbaa !55
  %35 = icmp eq i32 %34, 0
  br i1 %35, label %36, label %37

36:                                               ; preds = %33, %29
  br label %40

37:                                               ; preds = %33
  %38 = getelementptr inbounds nuw %"struct.seq_util::rex::info", ptr %10, i32 0, i32 2
  %39 = load i32, ptr %38, align 4, !tbaa !304
  br label %40

40:                                               ; preds = %37, %36
  %41 = phi i32 [ 1, %36 ], [ %39, %37 ]
  store i32 %41, ptr %9, align 4, !tbaa !285
  %42 = getelementptr inbounds nuw %"struct.seq_util::rex::info", ptr %10, i32 0, i32 1
  %43 = load i8, ptr %42, align 4, !tbaa !303, !range !78, !noundef !79
  %44 = trunc i8 %43 to i1
  %45 = load i32, ptr %9, align 4, !tbaa !285
  %46 = load i32, ptr %8, align 4, !tbaa !55
  call void @_ZN8seq_util3rex4infoC2Eb5lboolj(ptr noundef nonnull align 4 dereferenceable(16) %4, i1 noundef zeroext %44, i32 noundef %45, i32 noundef %46)
  call void @llvm.lifetime.end.p0(i64 4, ptr %9) #3
  call void @llvm.lifetime.end.p0(i64 4, ptr %8) #3
  br label %48

47:                                               ; preds = %3
  call void @llvm.memcpy.p0.p0.i64(ptr align 4 %4, ptr align 4 %10, i64 16, i1 false), !tbaa.struct !284
  br label %48

48:                                               ; preds = %47, %40
  %49 = load { i64, i64 }, ptr %4, align 4
  ret { i64, i64 } %49
}