; Function Attrs: mustprogress nofree norecurse nosync nounwind willreturn memory(argmem: read) uwtable
define hidden { i64, i64 } @_ZNK8seq_util3rex4info4loopEjj(ptr noundef nonnull readonly align 4 captures(none) dereferenceable(16) %0, i32 noundef %1, i32 noundef %2) local_unnamed_addr #14 align 2 {
  %4 = load i32, ptr %0, align 4, !tbaa !208
  %5 = icmp eq i32 %4, 1
  br i1 %5, label %6, label %17

6:                                                ; preds = %3
  %7 = getelementptr inbounds nuw i8, ptr %0, i64 12
  %8 = load i32, ptr %7, align 4, !tbaa !211
  %9 = mul i32 %8, %1
  %.not = icmp eq i32 %9, 0
  %10 = icmp ult i32 %9, %8
  %11 = icmp ult i32 %9, %1
  %or.cond11 = or i1 %10, %11
  %spec.select12 = select i1 %or.cond11, i32 -1, i32 %9
  %.0 = select i1 %.not, i32 0, i32 %spec.select12
  %12 = getelementptr inbounds nuw i8, ptr %0, i64 8
  %13 = load i32, ptr %12, align 4, !tbaa !210
  %14 = icmp eq i32 %1, 0
  %spec.select = select i1 %14, i32 1, i32 %13
  %15 = getelementptr inbounds nuw i8, ptr %0, i64 4
  %16 = load i8, ptr %15, align 4, !tbaa !209, !range !81, !noundef !82
  %.sroa.4.8.insert.ext = zext i32 %spec.select to i64
  %.sroa.4.12.insert.ext = zext i32 %.0 to i64
  %.sroa.4.12.insert.shift = shl nuw i64 %.sroa.4.12.insert.ext, 32
  %.sroa.4.12.insert.insert = or disjoint i64 %.sroa.4.12.insert.shift, %.sroa.4.8.insert.ext
  br label %19

17:                                               ; preds = %3
  %.sroa.0.0.copyload = load i64, ptr %0, align 4
  %.sroa.0.sroa.3.0.extract.shift = lshr i64 %.sroa.0.0.copyload, 32
  %.sroa.0.sroa.3.0.extract.trunc = trunc i64 %.sroa.0.sroa.3.0.extract.shift to i8
  %.sroa.0.sroa.4.0.extract.shift = and i64 %.sroa.0.0.copyload, -1099511627776
  %.sroa.4.0..sroa_idx = getelementptr inbounds nuw i8, ptr %0, i64 8
  %.sroa.4.0.copyload = load i64, ptr %.sroa.4.0..sroa_idx, align 4
  %18 = and i64 %.sroa.0.0.copyload, 4294967295
  br label %19

19:                                               ; preds = %17, %6
  %.sroa.0.sroa.4.sroa.0.0 = phi i64 [ 0, %6 ], [ %.sroa.0.sroa.4.0.extract.shift, %17 ]
  %.sroa.0.sroa.3.0 = phi i8 [ %16, %6 ], [ %.sroa.0.sroa.3.0.extract.trunc, %17 ]
  %.sroa.0.sroa.0.0 = phi i64 [ 1, %6 ], [ %18, %17 ]
  %.sroa.4.0 = phi i64 [ %.sroa.4.12.insert.insert, %6 ], [ %.sroa.4.0.copyload, %17 ]
  %.sroa.0.sroa.3.0.insert.ext = zext i8 %.sroa.0.sroa.3.0 to i64
  %.sroa.0.sroa.3.0.insert.shift = shl nuw nsw i64 %.sroa.0.sroa.3.0.insert.ext, 32
  %.sroa.0.sroa.3.0.insert.insert = or disjoint i64 %.sroa.0.sroa.3.0.insert.shift, %.sroa.0.sroa.4.sroa.0.0
  %.sroa.0.sroa.0.0.insert.insert = or disjoint i64 %.sroa.0.sroa.3.0.insert.insert, %.sroa.0.sroa.0.0
  %.fca.0.insert = insertvalue { i64, i64 } poison, i64 %.sroa.0.sroa.0.0.insert.insert, 0
  %.fca.1.insert = insertvalue { i64, i64 } %.fca.0.insert, i64 %.sroa.4.0, 1
  ret { i64, i64 } %.fca.1.insert
}